target datalayout = "e-m:e-p270:32:32-p271:32:32-p272:64:64-i64:64-i128:128-f80:128-n8:16:32:64-S128"
target triple = "x86_64-pc-linux-gnu"

%"class.lean::mpz" = type { [1 x %struct.__mpz_struct] }
%struct.__mpz_struct = type { i32, i32, ptr }

; Function Attrs: inlinehint mustprogress nounwind willreturn memory(read) uwtable
define available_externally i32 @__gmpz_fits_uint_p(ptr noundef %0) #8 {
  %2 = alloca ptr, align 8
  %3 = alloca i64, align 8
  %4 = alloca ptr, align 8
  store ptr %0, ptr %2, align 8, !tbaa !8
  call void @llvm.lifetime.start.p0(i64 8, ptr %3) #17
  %5 = load ptr, ptr %2, align 8, !tbaa !8
  %6 = getelementptr inbounds nuw %struct.__mpz_struct, ptr %5, i32 0, i32 1
  %7 = load i32, ptr %6, align 4, !tbaa !15
  %8 = sext i32 %7 to i64
  store i64 %8, ptr %3, align 8, !tbaa !13
  call void @llvm.lifetime.start.p0(i64 8, ptr %4) #17
  %9 = load ptr, ptr %2, align 8, !tbaa !8
  %10 = getelementptr inbounds nuw %struct.__mpz_struct, ptr %9, i32 0, i32 2
  %11 = load ptr, ptr %10, align 8, !tbaa !18
  store ptr %11, ptr %4, align 8, !tbaa !19
  %12 = load i64, ptr %3, align 8, !tbaa !13
  %13 = icmp eq i64 %12, 0
  br i1 %13, label %24, label %14

14:                                               ; preds = %1
  %15 = load i64, ptr %3, align 8, !tbaa !13
  %16 = icmp eq i64 %15, 1
  br i1 %16, label %17, label %22

17:                                               ; preds = %14
  %18 = load ptr, ptr %4, align 8, !tbaa !19
  %19 = getelementptr inbounds i64, ptr %18, i64 0
  %20 = load i64, ptr %19, align 8, !tbaa !13
  %21 = icmp ule i64 %20, 4294967295
  br label %22

22:                                               ; preds = %17, %14
  %23 = phi i1 [ false, %14 ], [ %21, %17 ]
  br label %24

24:                                               ; preds = %22, %1
  %25 = phi i1 [ true, %1 ], [ %23, %22 ]
  %26 = zext i1 %25 to i32
  call void @llvm.lifetime.end.p0(i64 8, ptr %4) #17
  call void @llvm.lifetime.end.p0(i64 8, ptr %3) #17
  ret i32 %26
}

; Function Attrs: mustprogress nounwind uwtable
define noundef zeroext i1 @_ZNK4lean3mpz15is_unsigned_intEv(ptr noundef nonnull align 8 dereferenceable(16) %0) #0 align 2 {
  %2 = alloca ptr, align 8
  store ptr %0, ptr %2, align 8, !tbaa !3
  %3 = load ptr, ptr %2, align 8
  %4 = getelementptr inbounds nuw %"class.lean::mpz", ptr %3, i32 0, i32 0
  %5 = getelementptr inbounds [1 x %struct.__mpz_struct], ptr %4, i64 0, i64 0
  %6 = call i32 @__gmpz_fits_uint_p(ptr noundef %5) #19
  %7 = icmp ne i32 %6, 0
  ret i1 %7
}