; Function Attrs: mustprogress nofree norecurse nosync nounwind willreturn memory(read, inaccessiblemem: none) uwtable
define noundef zeroext i1 @_ZNK4lean3mpz15is_unsigned_intEv(ptr noundef nonnull readonly align 8 captures(none) dereferenceable(16) %0) local_unnamed_addr #10 align 2 {
  %2 = getelementptr inbounds nuw i8, ptr %0, i64 4
  %3 = load i32, ptr %2, align 4, !tbaa !3
  switch i32 %3, label %.fold.split.i [
    i32 0, label %__gmpz_fits_uint_p.exit
    i32 1, label %4
  ]

4:                                                ; preds = %1
  %5 = getelementptr inbounds nuw i8, ptr %0, i64 8
  %6 = load ptr, ptr %5, align 8, !tbaa !10
  %7 = load i64, ptr %6, align 8, !tbaa !11
  %8 = icmp ult i64 %7, 4294967296
  br label %__gmpz_fits_uint_p.exit

.fold.split.i:                                    ; preds = %1
  br label %__gmpz_fits_uint_p.exit

__gmpz_fits_uint_p.exit:                          ; preds = %1, %4, %.fold.split.i
  %9 = phi i1 [ true, %1 ], [ %8, %4 ], [ false, %.fold.split.i ]
  ret i1 %9
}